target datalayout = "e-m:e-p270:32:32-p271:32:32-p272:64:64-i64:64-i128:128-f80:128-n8:16:32:64-S128"
target triple = "x86_64-pc-linux-gnu"

%struct.DTableDesc = type { i8, i8, i8, i8 }
%struct.HUF_DecompressFastArgs = type { [4 x ptr], [4 x ptr], [4 x i64], ptr, ptr, ptr, [4 x ptr] }

; Function Attrs: nounwind uwtable
define internal i64 @MEM_swap64(i64 noundef %0) #0 {
  %2 = alloca i64, align 8
  store i64 %0, ptr %2, align 8
  %3 = load i64, ptr %2, align 8
  %4 = call i64 @llvm.bswap.i64(i64 %3)
  ret i64 %4
}

; Function Attrs: nounwind uwtable
define internal i64 @MEM_read64(ptr noundef %0) #0 {
  %2 = alloca ptr, align 8
  store ptr %0, ptr %2, align 8
  %3 = load ptr, ptr %2, align 8
  %4 = load i64, ptr %3, align 1
  ret i64 %4
}

; Function Attrs: nounwind uwtable
define internal i32 @MEM_swap32(i32 noundef %0) #0 {
  %2 = alloca i32, align 4
  store i32 %0, ptr %2, align 4
  %3 = load i32, ptr %2, align 4
  %4 = call i32 @llvm.bswap.i32(i32 %3)
  ret i32 %4
}

; Function Attrs: nounwind uwtable
define internal i32 @MEM_read32(ptr noundef %0) #0 {
  %2 = alloca ptr, align 8
  store ptr %0, ptr %2, align 8
  %3 = load ptr, ptr %2, align 8
  %4 = load i32, ptr %3, align 1
  ret i32 %4
}

; Function Attrs: nounwind uwtable
define internal i64 @MEM_readLE64(ptr noundef %0) #0 {
  %2 = alloca i64, align 8
  %3 = alloca ptr, align 8
  store ptr %0, ptr %3, align 8
  %4 = call i32 @MEM_isLittleEndian()
  %5 = icmp ne i32 %4, 0
  br i1 %5, label %6, label %9

6:                                                ; preds = %1
  %7 = load ptr, ptr %3, align 8
  %8 = call i64 @MEM_read64(ptr noundef %7)
  store i64 %8, ptr %2, align 8
  br label %13

9:                                                ; preds = %1
  %10 = load ptr, ptr %3, align 8
  %11 = call i64 @MEM_read64(ptr noundef %10)
  %12 = call i64 @MEM_swap64(i64 noundef %11)
  store i64 %12, ptr %2, align 8
  br label %13

13:                                               ; preds = %9, %6
  %14 = load i64, ptr %2, align 8
  ret i64 %14
}

; Function Attrs: nounwind uwtable
define internal i32 @MEM_readLE32(ptr noundef %0) #0 {
  %2 = alloca i32, align 4
  %3 = alloca ptr, align 8
  store ptr %0, ptr %3, align 8
  %4 = call i32 @MEM_isLittleEndian()
  %5 = icmp ne i32 %4, 0
  br i1 %5, label %6, label %9

6:                                                ; preds = %1
  %7 = load ptr, ptr %3, align 8
  %8 = call i32 @MEM_read32(ptr noundef %7)
  store i32 %8, ptr %2, align 4
  br label %13

9:                                                ; preds = %1
  %10 = load ptr, ptr %3, align 8
  %11 = call i32 @MEM_read32(ptr noundef %10)
  %12 = call i32 @MEM_swap32(i32 noundef %11)
  store i32 %12, ptr %2, align 4
  br label %13

13:                                               ; preds = %9, %6
  %14 = load i32, ptr %2, align 4
  ret i32 %14
}

; Function Attrs: nounwind uwtable
define internal i32 @ZSTD_countLeadingZeros32(i32 noundef %0) #0 {
  %2 = alloca i32, align 4
  store i32 %0, ptr %2, align 4
  %3 = load i32, ptr %2, align 4
  %4 = call i32 @llvm.ctlz.i32(i32 %3, i1 true)
  ret i32 %4
}

; Function Attrs: nounwind uwtable
define internal i64 @MEM_readLEST(ptr noundef %0) #0 {
  %2 = alloca i64, align 8
  %3 = alloca ptr, align 8
  store ptr %0, ptr %3, align 8
  %4 = call i32 @MEM_32bits()
  %5 = icmp ne i32 %4, 0
  br i1 %5, label %6, label %10

6:                                                ; preds = %1
  %7 = load ptr, ptr %3, align 8
  %8 = call i32 @MEM_readLE32(ptr noundef %7)
  %9 = zext i32 %8 to i64
  store i64 %9, ptr %2, align 8
  br label %13

10:                                               ; preds = %1
  %11 = load ptr, ptr %3, align 8
  %12 = call i64 @MEM_readLE64(ptr noundef %11)
  store i64 %12, ptr %2, align 8
  br label %13

13:                                               ; preds = %10, %6
  %14 = load i64, ptr %2, align 8
  ret i64 %14
}

; Function Attrs: nounwind uwtable
define internal i32 @ZSTD_highbit32(i32 noundef %0) #0 {
  %2 = alloca i32, align 4
  store i32 %0, ptr %2, align 4
  %3 = load i32, ptr %2, align 4
  %4 = call i32 @ZSTD_countLeadingZeros32(i32 noundef %3)
  %5 = sub i32 31, %4
  ret i32 %5
}

; Function Attrs: nounwind uwtable
define internal zeroext i16 @MEM_read16(ptr noundef %0) #0 {
  %2 = alloca ptr, align 8
  store ptr %0, ptr %2, align 8
  %3 = load ptr, ptr %2, align 8
  %4 = load i16, ptr %3, align 1
  ret i16 %4
}

; Function Attrs: nounwind uwtable
define internal i64 @HUF_initFastDStream(ptr noundef %0) #0 {
  %2 = alloca ptr, align 8
  %3 = alloca i8, align 1
  %4 = alloca i64, align 8
  %5 = alloca i64, align 8
  store ptr %0, ptr %2, align 8
  %6 = load ptr, ptr %2, align 8
  %7 = getelementptr inbounds i8, ptr %6, i64 7
  %8 = load i8, ptr %7, align 1
  store i8 %8, ptr %3, align 1
  %9 = load i8, ptr %3, align 1
  %10 = zext i8 %9 to i32
  %11 = icmp ne i32 %10, 0
  br i1 %11, label %12, label %17

12:                                               ; preds = %1
  %13 = load i8, ptr %3, align 1
  %14 = zext i8 %13 to i32
  %15 = call i32 @ZSTD_highbit32(i32 noundef %14)
  %16 = sub i32 8, %15
  br label %18

17:                                               ; preds = %1
  br label %18

18:                                               ; preds = %17, %12
  %19 = phi i32 [ %16, %12 ], [ 0, %17 ]
  %20 = zext i32 %19 to i64
  store i64 %20, ptr %4, align 8
  %21 = load ptr, ptr %2, align 8
  %22 = call i64 @MEM_readLEST(ptr noundef %21)
  %23 = or i64 %22, 1
  store i64 %23, ptr %5, align 8
  %24 = load i64, ptr %5, align 8
  %25 = load i64, ptr %4, align 8
  %26 = shl i64 %24, %25
  ret i64 %26
}

; Function Attrs: nounwind uwtable
define internal zeroext i16 @MEM_readLE16(ptr noundef %0) #0 {
  %2 = alloca i16, align 2
  %3 = alloca ptr, align 8
  %4 = alloca ptr, align 8
  store ptr %0, ptr %3, align 8
  %5 = call i32 @MEM_isLittleEndian()
  %6 = icmp ne i32 %5, 0
  br i1 %6, label %7, label %10

7:                                                ; preds = %1
  %8 = load ptr, ptr %3, align 8
  %9 = call zeroext i16 @MEM_read16(ptr noundef %8)
  store i16 %9, ptr %2, align 2
  br label %23

10:                                               ; preds = %1
  %11 = load ptr, ptr %3, align 8
  store ptr %11, ptr %4, align 8
  %12 = load ptr, ptr %4, align 8
  %13 = getelementptr inbounds i8, ptr %12, i64 0
  %14 = load i8, ptr %13, align 1
  %15 = zext i8 %14 to i32
  %16 = load ptr, ptr %4, align 8
  %17 = getelementptr inbounds i8, ptr %16, i64 1
  %18 = load i8, ptr %17, align 1
  %19 = zext i8 %18 to i32
  %20 = shl i32 %19, 8
  %21 = add nsw i32 %15, %20
  %22 = trunc i32 %21 to i16
  store i16 %22, ptr %2, align 2
  br label %23

23:                                               ; preds = %10, %7
  %24 = load i16, ptr %2, align 2
  ret i16 %24
}

; Function Attrs: nounwind uwtable
define internal i32 @MEM_32bits() #0 {
  ret i32 0
}

; Function Attrs: nounwind uwtable
define internal i32 @MEM_isLittleEndian() #0 {
  ret i32 1
}

; Function Attrs: nounwind uwtable
define internal i32 @HUF_getDTableDesc(ptr noundef %0) #0 {
  %2 = alloca %struct.DTableDesc, align 1
  %3 = alloca ptr, align 8
  store ptr %0, ptr %3, align 8
  %4 = load ptr, ptr %3, align 8
  call void @llvm.memcpy.p0.p0.i64(ptr align 1 %2, ptr align 4 %4, i64 4, i1 false)
  %5 = load i32, ptr %2, align 1
  ret i32 %5
}

; Function Attrs: nounwind uwtable
define internal i64 @HUF_DecompressFastArgs_init(ptr noundef %0, ptr noundef %1, i64 noundef %2, ptr noundef %3, i64 noundef %4, ptr noundef %5) #0 {
  %7 = alloca i64, align 8
  %8 = alloca ptr, align 8
  %9 = alloca ptr, align 8
  %10 = alloca i64, align 8
  %11 = alloca ptr, align 8
  %12 = alloca i64, align 8
  %13 = alloca ptr, align 8
  %14 = alloca ptr, align 8
  %15 = alloca i32, align 4
  %16 = alloca %struct.DTableDesc, align 1
  %17 = alloca ptr, align 8
  %18 = alloca ptr, align 8
  %19 = alloca ptr, align 8
  %20 = alloca i64, align 8
  %21 = alloca i64, align 8
  %22 = alloca i64, align 8
  %23 = alloca i64, align 8
  store ptr %0, ptr %8, align 8
  store ptr %1, ptr %9, align 8
  store i64 %2, ptr %10, align 8
  store ptr %3, ptr %11, align 8
  store i64 %4, ptr %12, align 8
  store ptr %5, ptr %13, align 8
  %24 = load ptr, ptr %13, align 8
  %25 = getelementptr inbounds i32, ptr %24, i64 1
  store ptr %25, ptr %14, align 8
  %26 = load ptr, ptr %13, align 8
  %27 = call i32 @HUF_getDTableDesc(ptr noundef %26)
  store i32 %27, ptr %16, align 1
  %28 = getelementptr inbounds %struct.DTableDesc, ptr %16, i32 0, i32 2
  %29 = load i8, ptr %28, align 1
  %30 = zext i8 %29 to i32
  store i32 %30, ptr %15, align 4
  %31 = load ptr, ptr %11, align 8
  %32 = getelementptr inbounds i8, ptr %31, i64 6
  %33 = getelementptr inbounds i8, ptr %32, i64 8
  store ptr %33, ptr %17, align 8
  %34 = load ptr, ptr %9, align 8
  %35 = load i64, ptr %10, align 8
  %36 = getelementptr inbounds i8, ptr %34, i64 %35
  store ptr %36, ptr %18, align 8
  %37 = call i32 @MEM_isLittleEndian()
  %38 = icmp ne i32 %37, 0
  br i1 %38, label %39, label %42

39:                                               ; preds = %6
  %40 = call i32 @MEM_32bits()
  %41 = icmp ne i32 %40, 0
  br i1 %41, label %42, label %43

42:                                               ; preds = %39, %6
  store i64 0, ptr %7, align 8
  br label %239

43:                                               ; preds = %39
  %44 = load i64, ptr %12, align 8
  %45 = icmp ult i64 %44, 10
  br i1 %45, label %46, label %47

46:                                               ; preds = %43
  store i64 -20, ptr %7, align 8
  br label %239

47:                                               ; preds = %43
  %48 = load i32, ptr %15, align 4
  %49 = icmp ne i32 %48, 11
  br i1 %49, label %50, label %51

50:                                               ; preds = %47
  store i64 0, ptr %7, align 8
  br label %239

51:                                               ; preds = %47
  %52 = load ptr, ptr %11, align 8
  store ptr %52, ptr %19, align 8
  %53 = load ptr, ptr %19, align 8
  %54 = call zeroext i16 @MEM_readLE16(ptr noundef %53)
  %55 = zext i16 %54 to i64
  store i64 %55, ptr %20, align 8
  %56 = load ptr, ptr %19, align 8
  %57 = getelementptr inbounds i8, ptr %56, i64 2
  %58 = call zeroext i16 @MEM_readLE16(ptr noundef %57)
  %59 = zext i16 %58 to i64
  store i64 %59, ptr %21, align 8
  %60 = load ptr, ptr %19, align 8
  %61 = getelementptr inbounds i8, ptr %60, i64 4
  %62 = call zeroext i16 @MEM_readLE16(ptr noundef %61)
  %63 = zext i16 %62 to i64
  store i64 %63, ptr %22, align 8
  %64 = load i64, ptr %12, align 8
  %65 = load i64, ptr %20, align 8
  %66 = load i64, ptr %21, align 8
  %67 = add i64 %65, %66
  %68 = load i64, ptr %22, align 8
  %69 = add i64 %67, %68
  %70 = add i64 %69, 6
  %71 = sub i64 %64, %70
  store i64 %71, ptr %23, align 8
  %72 = load ptr, ptr %19, align 8
  %73 = getelementptr inbounds i8, ptr %72, i64 6
  %74 = load ptr, ptr %8, align 8
  %75 = getelementptr inbounds %struct.HUF_DecompressFastArgs, ptr %74, i32 0, i32 6
  %76 = getelementptr inbounds [4 x ptr], ptr %75, i64 0, i64 0
  store ptr %73, ptr %76, align 8
  %77 = load ptr, ptr %8, align 8
  %78 = getelementptr inbounds %struct.HUF_DecompressFastArgs, ptr %77, i32 0, i32 6
  %79 = getelementptr inbounds [4 x ptr], ptr %78, i64 0, i64 0
  %80 = load ptr, ptr %79, align 8
  %81 = load i64, ptr %20, align 8
  %82 = getelementptr inbounds i8, ptr %80, i64 %81
  %83 = load ptr, ptr %8, align 8
  %84 = getelementptr inbounds %struct.HUF_DecompressFastArgs, ptr %83, i32 0, i32 6
  %85 = getelementptr inbounds [4 x ptr], ptr %84, i64 0, i64 1
  store ptr %82, ptr %85, align 8
  %86 = load ptr, ptr %8, align 8
  %87 = getelementptr inbounds %struct.HUF_DecompressFastArgs, ptr %86, i32 0, i32 6
  %88 = getelementptr inbounds [4 x ptr], ptr %87, i64 0, i64 1
  %89 = load ptr, ptr %88, align 8
  %90 = load i64, ptr %21, align 8
  %91 = getelementptr inbounds i8, ptr %89, i64 %90
  %92 = load ptr, ptr %8, align 8
  %93 = getelementptr inbounds %struct.HUF_DecompressFastArgs, ptr %92, i32 0, i32 6
  %94 = getelementptr inbounds [4 x ptr], ptr %93, i64 0, i64 2
  store ptr %91, ptr %94, align 8
  %95 = load ptr, ptr %8, align 8
  %96 = getelementptr inbounds %struct.HUF_DecompressFastArgs, ptr %95, i32 0, i32 6
  %97 = getelementptr inbounds [4 x ptr], ptr %96, i64 0, i64 2
  %98 = load ptr, ptr %97, align 8
  %99 = load i64, ptr %22, align 8
  %100 = getelementptr inbounds i8, ptr %98, i64 %99
  %101 = load ptr, ptr %8, align 8
  %102 = getelementptr inbounds %struct.HUF_DecompressFastArgs, ptr %101, i32 0, i32 6
  %103 = getelementptr inbounds [4 x ptr], ptr %102, i64 0, i64 3
  store ptr %100, ptr %103, align 8
  %104 = load i64, ptr %20, align 8
  %105 = icmp ult i64 %104, 16
  br i1 %105, label %115, label %106

106:                                              ; preds = %51
  %107 = load i64, ptr %21, align 8
  %108 = icmp ult i64 %107, 8
  br i1 %108, label %115, label %109

109:                                              ; preds = %106
  %110 = load i64, ptr %22, align 8
  %111 = icmp ult i64 %110, 8
  br i1 %111, label %115, label %112

112:                                              ; preds = %109
  %113 = load i64, ptr %23, align 8
  %114 = icmp ult i64 %113, 8
  br i1 %114, label %115, label %116

115:                                              ; preds = %112, %109, %106, %51
  store i64 0, ptr %7, align 8
  br label %239

116:                                              ; preds = %112
  %117 = load i64, ptr %23, align 8
  %118 = load i64, ptr %12, align 8
  %119 = icmp ugt i64 %117, %118
  br i1 %119, label %120, label %121

120:                                              ; preds = %116
  store i64 -20, ptr %7, align 8
  br label %239

121:                                              ; preds = %116
  %122 = load ptr, ptr %8, align 8
  %123 = getelementptr inbounds %struct.HUF_DecompressFastArgs, ptr %122, i32 0, i32 6
  %124 = getelementptr inbounds [4 x ptr], ptr %123, i64 0, i64 1
  %125 = load ptr, ptr %124, align 8
  %126 = getelementptr inbounds i8, ptr %125, i64 -8
  %127 = load ptr, ptr %8, align 8
  %128 = getelementptr inbounds %struct.HUF_DecompressFastArgs, ptr %127, i32 0, i32 0
  %129 = getelementptr inbounds [4 x ptr], ptr %128, i64 0, i64 0
  store ptr %126, ptr %129, align 8
  %130 = load ptr, ptr %8, align 8
  %131 = getelementptr inbounds %struct.HUF_DecompressFastArgs, ptr %130, i32 0, i32 6
  %132 = getelementptr inbounds [4 x ptr], ptr %131, i64 0, i64 2
  %133 = load ptr, ptr %132, align 8
  %134 = getelementptr inbounds i8, ptr %133, i64 -8
  %135 = load ptr, ptr %8, align 8
  %136 = getelementptr inbounds %struct.HUF_DecompressFastArgs, ptr %135, i32 0, i32 0
  %137 = getelementptr inbounds [4 x ptr], ptr %136, i64 0, i64 1
  store ptr %134, ptr %137, align 8
  %138 = load ptr, ptr %8, align 8
  %139 = getelementptr inbounds %struct.HUF_DecompressFastArgs, ptr %138, i32 0, i32 6
  %140 = getelementptr inbounds [4 x ptr], ptr %139, i64 0, i64 3
  %141 = load ptr, ptr %140, align 8
  %142 = getelementptr inbounds i8, ptr %141, i64 -8
  %143 = load ptr, ptr %8, align 8
  %144 = getelementptr inbounds %struct.HUF_DecompressFastArgs, ptr %143, i32 0, i32 0
  %145 = getelementptr inbounds [4 x ptr], ptr %144, i64 0, i64 2
  store ptr %142, ptr %145, align 8
  %146 = load ptr, ptr %11, align 8
  %147 = load i64, ptr %12, align 8
  %148 = getelementptr inbounds i8, ptr %146, i64 %147
  %149 = getelementptr inbounds i8, ptr %148, i64 -8
  %150 = load ptr, ptr %8, align 8
  %151 = getelementptr inbounds %struct.HUF_DecompressFastArgs, ptr %150, i32 0, i32 0
  %152 = getelementptr inbounds [4 x ptr], ptr %151, i64 0, i64 3
  store ptr %149, ptr %152, align 8
  %153 = load ptr, ptr %9, align 8
  %154 = load ptr, ptr %8, align 8
  %155 = getelementptr inbounds %struct.HUF_DecompressFastArgs, ptr %154, i32 0, i32 1
  %156 = getelementptr inbounds [4 x ptr], ptr %155, i64 0, i64 0
  store ptr %153, ptr %156, align 8
  %157 = load ptr, ptr %8, align 8
  %158 = getelementptr inbounds %struct.HUF_DecompressFastArgs, ptr %157, i32 0, i32 1
  %159 = getelementptr inbounds [4 x ptr], ptr %158, i64 0, i64 0
  %160 = load ptr, ptr %159, align 8
  %161 = load i64, ptr %10, align 8
  %162 = add i64 %161, 3
  %163 = udiv i64 %162, 4
  %164 = getelementptr inbounds i8, ptr %160, i64 %163
  %165 = load ptr, ptr %8, align 8
  %166 = getelementptr inbounds %struct.HUF_DecompressFastArgs, ptr %165, i32 0, i32 1
  %167 = getelementptr inbounds [4 x ptr], ptr %166, i64 0, i64 1
  store ptr %164, ptr %167, align 8
  %168 = load ptr, ptr %8, align 8
  %169 = getelementptr inbounds %struct.HUF_DecompressFastArgs, ptr %168, i32 0, i32 1
  %170 = getelementptr inbounds [4 x ptr], ptr %169, i64 0, i64 1
  %171 = load ptr, ptr %170, align 8
  %172 = load i64, ptr %10, align 8
  %173 = add i64 %172, 3
  %174 = udiv i64 %173, 4
  %175 = getelementptr inbounds i8, ptr %171, i64 %174
  %176 = load ptr, ptr %8, align 8
  %177 = getelementptr inbounds %struct.HUF_DecompressFastArgs, ptr %176, i32 0, i32 1
  %178 = getelementptr inbounds [4 x ptr], ptr %177, i64 0, i64 2
  store ptr %175, ptr %178, align 8
  %179 = load ptr, ptr %8, align 8
  %180 = getelementptr inbounds %struct.HUF_DecompressFastArgs, ptr %179, i32 0, i32 1
  %181 = getelementptr inbounds [4 x ptr], ptr %180, i64 0, i64 2
  %182 = load ptr, ptr %181, align 8
  %183 = load i64, ptr %10, align 8
  %184 = add i64 %183, 3
  %185 = udiv i64 %184, 4
  %186 = getelementptr inbounds i8, ptr %182, i64 %185
  %187 = load ptr, ptr %8, align 8
  %188 = getelementptr inbounds %struct.HUF_DecompressFastArgs, ptr %187, i32 0, i32 1
  %189 = getelementptr inbounds [4 x ptr], ptr %188, i64 0, i64 3
  store ptr %186, ptr %189, align 8
  %190 = load ptr, ptr %8, align 8
  %191 = getelementptr inbounds %struct.HUF_DecompressFastArgs, ptr %190, i32 0, i32 1
  %192 = getelementptr inbounds [4 x ptr], ptr %191, i64 0, i64 3
  %193 = load ptr, ptr %192, align 8
  %194 = load ptr, ptr %18, align 8
  %195 = icmp uge ptr %193, %194
  br i1 %195, label %196, label %197

196:                                              ; preds = %121
  store i64 0, ptr %7, align 8
  br label %239

197:                                              ; preds = %121
  %198 = load ptr, ptr %8, align 8
  %199 = getelementptr inbounds %struct.HUF_DecompressFastArgs, ptr %198, i32 0, i32 0
  %200 = getelementptr inbounds [4 x ptr], ptr %199, i64 0, i64 0
  %201 = load ptr, ptr %200, align 8
  %202 = call i64 @HUF_initFastDStream(ptr noundef %201)
  %203 = load ptr, ptr %8, align 8
  %204 = getelementptr inbounds %struct.HUF_DecompressFastArgs, ptr %203, i32 0, i32 2
  %205 = getelementptr inbounds [4 x i64], ptr %204, i64 0, i64 0
  store i64 %202, ptr %205, align 8
  %206 = load ptr, ptr %8, align 8
  %207 = getelementptr inbounds %struct.HUF_DecompressFastArgs, ptr %206, i32 0, i32 0
  %208 = getelementptr inbounds [4 x ptr], ptr %207, i64 0, i64 1
  %209 = load ptr, ptr %208, align 8
  %210 = call i64 @HUF_initFastDStream(ptr noundef %209)
  %211 = load ptr, ptr %8, align 8
  %212 = getelementptr inbounds %struct.HUF_DecompressFastArgs, ptr %211, i32 0, i32 2
  %213 = getelementptr inbounds [4 x i64], ptr %212, i64 0, i64 1
  store i64 %210, ptr %213, align 8
  %214 = load ptr, ptr %8, align 8
  %215 = getelementptr inbounds %struct.HUF_DecompressFastArgs, ptr %214, i32 0, i32 0
  %216 = getelementptr inbounds [4 x ptr], ptr %215, i64 0, i64 2
  %217 = load ptr, ptr %216, align 8
  %218 = call i64 @HUF_initFastDStream(ptr noundef %217)
  %219 = load ptr, ptr %8, align 8
  %220 = getelementptr inbounds %struct.HUF_DecompressFastArgs, ptr %219, i32 0, i32 2
  %221 = getelementptr inbounds [4 x i64], ptr %220, i64 0, i64 2
  store i64 %218, ptr %221, align 8
  %222 = load ptr, ptr %8, align 8
  %223 = getelementptr inbounds %struct.HUF_DecompressFastArgs, ptr %222, i32 0, i32 0
  %224 = getelementptr inbounds [4 x ptr], ptr %223, i64 0, i64 3
  %225 = load ptr, ptr %224, align 8
  %226 = call i64 @HUF_initFastDStream(ptr noundef %225)
  %227 = load ptr, ptr %8, align 8
  %228 = getelementptr inbounds %struct.HUF_DecompressFastArgs, ptr %227, i32 0, i32 2
  %229 = getelementptr inbounds [4 x i64], ptr %228, i64 0, i64 3
  store i64 %226, ptr %229, align 8
  %230 = load ptr, ptr %17, align 8
  %231 = load ptr, ptr %8, align 8
  %232 = getelementptr inbounds %struct.HUF_DecompressFastArgs, ptr %231, i32 0, i32 4
  store ptr %230, ptr %232, align 8
  %233 = load ptr, ptr %18, align 8
  %234 = load ptr, ptr %8, align 8
  %235 = getelementptr inbounds %struct.HUF_DecompressFastArgs, ptr %234, i32 0, i32 5
  store ptr %233, ptr %235, align 8
  %236 = load ptr, ptr %14, align 8
  %237 = load ptr, ptr %8, align 8
  %238 = getelementptr inbounds %struct.HUF_DecompressFastArgs, ptr %237, i32 0, i32 3
  store ptr %236, ptr %238, align 8
  store i64 1, ptr %7, align 8
  br label %239

239:                                              ; preds = %197, %196, %120, %115, %50, %46, %42
  %240 = load i64, ptr %7, align 8
  ret i64 %240
}