; Function Attrs: mustprogress nofree norecurse nosync nounwind willreturn memory(argmem: readwrite) uwtable
define internal fastcc range(i64 -20, 2) i64 @HUF_DecompressFastArgs_init(ptr noundef nonnull writeonly captures(none) %0, ptr noundef %1, i64 noundef %2, ptr noundef %3, i64 noundef %4, ptr noundef %5) unnamed_addr #7 {
  %7 = getelementptr inbounds nuw i8, ptr %5, i64 4
  %8 = getelementptr inbounds nuw i8, ptr %3, i64 6
  %9 = getelementptr inbounds nuw i8, ptr %3, i64 14
  %10 = getelementptr inbounds i8, ptr %1, i64 %2
  %11 = icmp ult i64 %4, 10
  br i1 %11, label %103, label %12

12:                                               ; preds = %6
  %.val = load i32, ptr %5, align 4
  %13 = and i32 %.val, 16711680
  %.not = icmp eq i32 %13, 720896
  br i1 %.not, label %14, label %103

14:                                               ; preds = %12
  %.val79 = load i16, ptr %3, align 1
  %15 = zext i16 %.val79 to i64
  %16 = getelementptr inbounds nuw i8, ptr %3, i64 2
  %.val78 = load i16, ptr %16, align 1
  %17 = zext i16 %.val78 to i64
  %18 = getelementptr inbounds nuw i8, ptr %3, i64 4
  %.val77 = load i16, ptr %18, align 1
  %19 = zext i16 %.val77 to i64
  %20 = add nuw nsw i64 %15, 6
  %21 = add nuw nsw i64 %20, %17
  %22 = add nuw nsw i64 %21, %19
  %23 = sub i64 %4, %22
  %24 = getelementptr inbounds nuw i8, ptr %0, i64 120
  store ptr %8, ptr %24, align 8
  %25 = getelementptr inbounds nuw i8, ptr %8, i64 %15
  %26 = getelementptr inbounds nuw i8, ptr %0, i64 128
  store ptr %25, ptr %26, align 8
  %27 = getelementptr inbounds nuw i8, ptr %25, i64 %17
  %28 = getelementptr inbounds nuw i8, ptr %0, i64 136
  store ptr %27, ptr %28, align 8
  %29 = getelementptr inbounds nuw i8, ptr %27, i64 %19
  %30 = getelementptr inbounds nuw i8, ptr %0, i64 144
  store ptr %29, ptr %30, align 8
  %31 = icmp ult i16 %.val79, 16
  %32 = icmp ult i16 %.val78, 8
  %or.cond = select i1 %31, i1 true, i1 %32
  %33 = icmp ult i16 %.val77, 8
  %or.cond3 = select i1 %or.cond, i1 true, i1 %33
  %34 = icmp ult i64 %23, 8
  %or.cond5 = select i1 %or.cond3, i1 true, i1 %34
  br i1 %or.cond5, label %103, label %35

35:                                               ; preds = %14
  %36 = icmp ugt i64 %22, %4
  br i1 %36, label %103, label %37

37:                                               ; preds = %35
  %38 = getelementptr inbounds i8, ptr %25, i64 -8
  store ptr %38, ptr %0, align 8
  %39 = getelementptr inbounds i8, ptr %27, i64 -8
  %40 = getelementptr inbounds nuw i8, ptr %0, i64 8
  store ptr %39, ptr %40, align 8
  %41 = getelementptr inbounds i8, ptr %29, i64 -8
  %42 = getelementptr inbounds nuw i8, ptr %0, i64 16
  store ptr %41, ptr %42, align 8
  %43 = getelementptr inbounds i8, ptr %3, i64 %4
  %44 = getelementptr inbounds i8, ptr %43, i64 -8
  %45 = getelementptr inbounds nuw i8, ptr %0, i64 24
  store ptr %44, ptr %45, align 8
  %46 = getelementptr inbounds nuw i8, ptr %0, i64 32
  store ptr %1, ptr %46, align 8
  %47 = add i64 %2, 3
  %48 = lshr i64 %47, 2
  %49 = getelementptr inbounds nuw i8, ptr %1, i64 %48
  %50 = getelementptr inbounds nuw i8, ptr %0, i64 40
  store ptr %49, ptr %50, align 8
  %51 = getelementptr inbounds nuw i8, ptr %49, i64 %48
  %52 = getelementptr inbounds nuw i8, ptr %0, i64 48
  store ptr %51, ptr %52, align 8
  %53 = getelementptr inbounds nuw i8, ptr %51, i64 %48
  %54 = getelementptr inbounds nuw i8, ptr %0, i64 56
  store ptr %53, ptr %54, align 8
  %.not76 = icmp ult ptr %53, %10
  br i1 %.not76, label %55, label %103

55:                                               ; preds = %37
  %56 = getelementptr inbounds i8, ptr %25, i64 -1
  %57 = load i8, ptr %56, align 1
  %.not.i = icmp eq i8 %57, 0
  %58 = zext i8 %57 to i32
  %59 = tail call range(i32 24, 32) i32 @llvm.ctlz.i32(i32 range(i32 1, 256) %58, i1 true)
  %60 = xor i32 %59, 31
  %61 = sub nuw nsw i32 8, %60
  %62 = zext nneg i32 %61 to i64
  %63 = select i1 %.not.i, i64 0, i64 %62
  %.val.i = load i64, ptr %38, align 1
  %64 = or i64 %.val.i, 1
  %65 = shl i64 %64, %63
  %66 = getelementptr inbounds nuw i8, ptr %0, i64 64
  store i64 %65, ptr %66, align 8
  %67 = getelementptr inbounds i8, ptr %27, i64 -1
  %68 = load i8, ptr %67, align 1
  %.not.i80 = icmp eq i8 %68, 0
  %69 = zext i8 %68 to i32
  %70 = tail call range(i32 24, 32) i32 @llvm.ctlz.i32(i32 range(i32 1, 256) %69, i1 true)
  %71 = xor i32 %70, 31
  %72 = sub nuw nsw i32 8, %71
  %73 = zext nneg i32 %72 to i64
  %74 = select i1 %.not.i80, i64 0, i64 %73
  %.val.i81 = load i64, ptr %39, align 1
  %75 = or i64 %.val.i81, 1
  %76 = shl i64 %75, %74
  %77 = getelementptr inbounds nuw i8, ptr %0, i64 72
  store i64 %76, ptr %77, align 8
  %78 = getelementptr inbounds i8, ptr %29, i64 -1
  %79 = load i8, ptr %78, align 1
  %.not.i82 = icmp eq i8 %79, 0
  %80 = zext i8 %79 to i32
  %81 = tail call range(i32 24, 32) i32 @llvm.ctlz.i32(i32 range(i32 1, 256) %80, i1 true)
  %82 = xor i32 %81, 31
  %83 = sub nuw nsw i32 8, %82
  %84 = zext nneg i32 %83 to i64
  %85 = select i1 %.not.i82, i64 0, i64 %84
  %.val.i83 = load i64, ptr %41, align 1
  %86 = or i64 %.val.i83, 1
  %87 = shl i64 %86, %85
  %88 = getelementptr inbounds nuw i8, ptr %0, i64 80
  store i64 %87, ptr %88, align 8
  %89 = getelementptr inbounds i8, ptr %43, i64 -1
  %90 = load i8, ptr %89, align 1
  %.not.i84 = icmp eq i8 %90, 0
  %91 = zext i8 %90 to i32
  %92 = tail call range(i32 24, 32) i32 @llvm.ctlz.i32(i32 range(i32 1, 256) %91, i1 true)
  %93 = xor i32 %92, 31
  %94 = sub nuw nsw i32 8, %93
  %95 = zext nneg i32 %94 to i64
  %96 = select i1 %.not.i84, i64 0, i64 %95
  %.val.i85 = load i64, ptr %44, align 1
  %97 = or i64 %.val.i85, 1
  %98 = shl i64 %97, %96
  %99 = getelementptr inbounds nuw i8, ptr %0, i64 88
  store i64 %98, ptr %99, align 8
  %100 = getelementptr inbounds nuw i8, ptr %0, i64 104
  store ptr %9, ptr %100, align 8
  %101 = getelementptr inbounds nuw i8, ptr %0, i64 112
  store ptr %10, ptr %101, align 8
  %102 = getelementptr inbounds nuw i8, ptr %0, i64 96
  store ptr %7, ptr %102, align 8
  br label %103

103:                                              ; preds = %37, %35, %14, %12, %6, %55
  %.0 = phi i64 [ 1, %55 ], [ -20, %6 ], [ 0, %12 ], [ 0, %14 ], [ -20, %35 ], [ 0, %37 ]
  ret i64 %.0
}